; ModuleID = 'source-C-CXX/30/127.c'
source_filename = "source-C-CXX/30/127.c"
target datalayout = "e-m:e-p270:32:32-p271:32:32-p272:64:64-i64:64-f80:128-n8:16:32:64-S128"
target triple = "x86_64-pc-linux-gnu"

@.str = private unnamed_addr constant [4 x i8] c"end\00", align 1

; Function Attrs: nounwind sspstrong uwtable
define dso_local void @main() local_unnamed_addr #0 {
  %1 = alloca [1000 x i8*], align 16
  %2 = bitcast [1000 x i8*]* %1 to i8*
  call void @llvm.lifetime.start.p0i8(i64 8000, i8* nonnull %2) #6
  %3 = getelementptr inbounds [1000 x i8*], [1000 x i8*]* %1, i64 0, i64 0
  %4 = tail call noalias align 16 dereferenceable_or_null(100) i8* @malloc(i64 100) #6
  store i8* %4, i8** %3, align 16, !tbaa !5
  %5 = tail call i32 (i8*, ...) bitcast (i32 (...)* @gets to i32 (i8*, ...)*)(i8* %4) #6
  %6 = tail call i32 @strcmp(i8* noundef nonnull dereferenceable(1) %4, i8* noundef nonnull dereferenceable(4) getelementptr inbounds ([4 x i8], [4 x i8]* @.str, i64 0, i64 0)) #7
  %7 = icmp eq i32 %6, 0
  br i1 %7, label %23, label %8

8:                                                ; preds = %0, %8
  %9 = phi i64 [ %10, %8 ], [ 0, %0 ]
  %10 = add nuw nsw i64 %9, 1
  %11 = getelementptr inbounds [1000 x i8*], [1000 x i8*]* %1, i64 0, i64 %10
  %12 = tail call noalias align 16 dereferenceable_or_null(100) i8* @malloc(i64 100) #6
  store i8* %12, i8** %11, align 8, !tbaa !5
  %13 = tail call i32 (i8*, ...) bitcast (i32 (...)* @gets to i32 (i8*, ...)*)(i8* %12) #6
  %14 = tail call i32 @strcmp(i8* noundef nonnull dereferenceable(1) %12, i8* noundef nonnull dereferenceable(4) getelementptr inbounds ([4 x i8], [4 x i8]* @.str, i64 0, i64 0)) #7
  %15 = icmp eq i32 %14, 0
  br i1 %15, label %16, label %8, !llvm.loop !9

16:                                               ; preds = %8, %16
  %17 = phi i64 [ %18, %16 ], [ %10, %8 ]
  %18 = add nsw i64 %17, -1
  %19 = getelementptr inbounds [1000 x i8*], [1000 x i8*]* %1, i64 0, i64 %18
  %20 = load i8*, i8** %19, align 8, !tbaa !5
  %21 = tail call i32 @puts(i8* nonnull dereferenceable(1) %20)
  %22 = icmp slt i64 %17, 2
  br i1 %22, label %23, label %16, !llvm.loop !11

23:                                               ; preds = %16, %0
  call void @llvm.lifetime.end.p0i8(i64 8000, i8* nonnull %2) #6
  ret void
}

; Function Attrs: argmemonly mustprogress nofree nosync nounwind willreturn
declare void @llvm.lifetime.start.p0i8(i64 immarg, i8* nocapture) #1

; Function Attrs: inaccessiblememonly mustprogress nofree nounwind willreturn
declare noalias noundef align 16 i8* @malloc(i64 noundef) local_unnamed_addr #2

declare i32 @gets(...) local_unnamed_addr #3

; Function Attrs: argmemonly mustprogress nofree nounwind readonly willreturn
declare i32 @strcmp(i8* nocapture, i8* nocapture) local_unnamed_addr #4

; Function Attrs: nofree nounwind
declare noundef i32 @puts(i8* nocapture noundef readonly) local_unnamed_addr #5

; Function Attrs: argmemonly mustprogress nofree nosync nounwind willreturn
declare void @llvm.lifetime.end.p0i8(i64 immarg, i8* nocapture) #1


!llvm.module.flags = !{!0, !1, !2, !3}
!llvm.ident = !{!4}

!0 = !{i32 1, !"wchar_size", i32 4}
!1 = !{i32 7, !"PIC Level", i32 2}
!2 = !{i32 7, !"PIE Level", i32 2}
!3 = !{i32 7, !"uwtable", i32 1}
!4 = !{!"clang version 13.0.0"}
!5 = !{!6, !6, i64 0}
!6 = !{!"any pointer", !7, i64 0}
!7 = !{!"omnipotent char", !8, i64 0}
!8 = !{!"Simple C/C++ TBAA"}
!9 = distinct !{!9, !10}
!10 = !{!"llvm.loop.mustprogress"}
!11 = distinct !{!11, !10}
